target datalayout = "e-m:e-p270:32:32-p271:32:32-p272:64:64-i64:64-i128:128-f80:128-n8:16:32:64-S128"
target triple = "x86_64-pc-linux-gnu"

%struct.expert_field = type { i32, i32 }
%struct._address = type { i32, i32, ptr, ptr }
%struct._packet_info = type { ptr, ptr, i32, i32, %struct.nstime_t, %struct.nstime_t, %struct.nstime_t, i8, ptr, ptr, ptr, ptr, %struct._address, %struct._address, %struct._address, %struct._address, %struct._address, %struct._address, i32, ptr, i8, [3 x i8], %struct.anon, i32, i32, i32, i32, ptr, i8, ptr, ptr, i16, i16, i32, i32, i16, i32, i32, ptr, ptr, ptr, i8, i8, i16, i16, i16, i32, i16, i16, ptr, ptr, ptr, ptr, ptr, i32, i32 }
%struct.nstime_t = type { i64, i32 }
%struct.anon = type { i8, [3 x i8] }

@ett_dvbci_res = internal global i32 0, align 4
@hf_dvbci_res_id = internal global i32 0, align 4
@ei_dvbci_bad_length = internal global %struct.expert_field zeroinitializer, align 4
@.str.985 = private unnamed_addr constant [12 x i8] c"Unknown: %d\00", align 1
@.str.986 = private unnamed_addr constant [60 x i8] c"Invalid APDU length field, %s must be a multiple of 4 bytes\00", align 1
@.str.987 = private unnamed_addr constant [14 x i8] c"%s Version %d\00", align 1
@.str.988 = private unnamed_addr constant [23 x i8] c"Invalid Resource class\00", align 1
@dvb_ci_res_id_fields = internal constant [5 x ptr] [ptr @hf_dvbci_res_id_type, ptr @hf_dvbci_res_class, ptr @hf_dvbci_res_type, ptr @hf_dvbci_res_ver, ptr null], align 16

; Function Attrs: null_pointer_is_valid sspstrong uwtable
define internal ptr @dissect_res_id(ptr noundef %0, i32 noundef %1, ptr noundef %2, ptr noundef %3, i32 noundef %4, i1 noundef zeroext %5) #0 {
  %7 = alloca ptr, align 8
  %8 = alloca ptr, align 8
  %9 = alloca i32, align 4
  %10 = alloca ptr, align 8
  %11 = alloca ptr, align 8
  %12 = alloca i32, align 4
  %13 = alloca i8, align 1
  store ptr %0, ptr %8, align 8
  store i32 %1, ptr %9, align 4
  store ptr %2, ptr %10, align 8
  store ptr %3, ptr %11, align 8
  store i32 %4, ptr %12, align 4
  %14 = zext i1 %5 to i8
  store i8 %14, ptr %13, align 1
  %15 = load ptr, ptr %8, align 8
  %16 = icmp ne ptr %15, null
  br i1 %16, label %17, label %25

17:                                               ; preds = %6
  %18 = load i32, ptr %12, align 4
  %19 = icmp ne i32 %18, 0
  br i1 %19, label %20, label %21

20:                                               ; preds = %17
  store ptr null, ptr %7, align 8
  br label %52

21:                                               ; preds = %17
  %22 = load ptr, ptr %8, align 8
  %23 = load i32, ptr %9, align 4
  %24 = call i32 @tvb_get_ntohl(ptr noundef %22, i32 noundef %23)
  store i32 %24, ptr %12, align 4
  br label %30

25:                                               ; preds = %6
  %26 = load i32, ptr %12, align 4
  %27 = icmp eq i32 %26, 0
  br i1 %27, label %28, label %29

28:                                               ; preds = %25
  store ptr null, ptr %7, align 8
  br label %52

29:                                               ; preds = %25
  store i32 0, ptr %9, align 4
  br label %30

30:                                               ; preds = %29, %21
  %31 = load i8, ptr %13, align 1, !range !9, !noundef !10
  %32 = trunc i8 %31 to i1
  br i1 %32, label %33, label %43

33:                                               ; preds = %30
  %34 = load ptr, ptr %10, align 8
  %35 = getelementptr inbounds nuw %struct._packet_info, ptr %34, i32 0, i32 1
  %36 = load ptr, ptr %35, align 8
  %37 = load i32, ptr %12, align 4
  %38 = and i32 %37, 1073676288
  %39 = lshr i32 %38, 16
  %40 = call ptr @val_to_str_const(i32 noundef %39, ptr noundef @dvbci_res_class, ptr noundef @.str.988)
  %41 = load i32, ptr %12, align 4
  %42 = and i32 %41, 63
  call void (ptr, i32, ptr, ptr, ...) @col_append_sep_fstr(ptr noundef %36, i32 noundef 25, ptr noundef null, ptr noundef @.str.987, ptr noundef %40, i32 noundef %42)
  br label %43

43:                                               ; preds = %33, %30
  %44 = load ptr, ptr %11, align 8
  %45 = load ptr, ptr %8, align 8
  %46 = load i32, ptr %9, align 4
  %47 = load i32, ptr @hf_dvbci_res_id, align 4
  %48 = load i32, ptr @ett_dvbci_res, align 4
  %49 = load i32, ptr %12, align 4
  %50 = zext i32 %49 to i64
  %51 = call ptr @proto_tree_add_bitmask_value_with_flags(ptr noundef %44, ptr noundef %45, i32 noundef %46, i32 noundef %47, i32 noundef %48, ptr noundef @dvb_ci_res_id_fields, i64 noundef %50, i32 noundef 1)
  store ptr %51, ptr %7, align 8
  br label %52

52:                                               ; preds = %43, %28, %20
  %53 = load ptr, ptr %7, align 8
  ret ptr %53
}

; Function Attrs: null_pointer_is_valid sspstrong uwtable
define internal void @dissect_dvbci_payload_rm(i32 noundef %0, i32 noundef %1, ptr noundef %2, i32 noundef %3, ptr noundef %4, ptr noundef %5, ptr noundef %6) #0 {
  %8 = alloca i32, align 4
  %9 = alloca i32, align 4
  %10 = alloca ptr, align 8
  %11 = alloca i32, align 4
  %12 = alloca ptr, align 8
  %13 = alloca ptr, align 8
  %14 = alloca ptr, align 8
  %15 = alloca ptr, align 8
  %16 = alloca i32, align 4
  store i32 %0, ptr %8, align 4
  store i32 %1, ptr %9, align 4
  store ptr %2, ptr %10, align 8
  store i32 %3, ptr %11, align 4
  store ptr %4, ptr %12, align 8
  store ptr %5, ptr %13, align 8
  store ptr %6, ptr %14, align 8
  call void @llvm.lifetime.start.p0(i64 8, ptr %15) #11
  %17 = load i32, ptr %8, align 4
  %18 = icmp eq i32 %17, 10453009
  br i1 %18, label %19, label %46

19:                                               ; preds = %7
  %20 = load i32, ptr %9, align 4
  %21 = srem i32 %20, 4
  %22 = icmp ne i32 %21, 0
  br i1 %22, label %23, label %31

23:                                               ; preds = %19
  %24 = load i32, ptr %8, align 4
  %25 = call ptr @val_to_str(i32 noundef %24, ptr noundef @dvbci_apdu_tag, ptr noundef @.str.985)
  store ptr %25, ptr %15, align 8
  %26 = load ptr, ptr %14, align 8
  %27 = load ptr, ptr %13, align 8
  %28 = load ptr, ptr %10, align 8
  %29 = load ptr, ptr %15, align 8
  %30 = call ptr (ptr, ptr, ptr, ptr, i32, i32, ptr, ...) @proto_tree_add_expert_format(ptr noundef %26, ptr noundef %27, ptr noundef @ei_dvbci_bad_length, ptr noundef %28, i32 noundef 0, i32 noundef 3, ptr noundef @.str.986, ptr noundef %29)
  store i32 1, ptr %16, align 4
  br label %47

31:                                               ; preds = %19
  br label %32

32:                                               ; preds = %37, %31
  %33 = load ptr, ptr %10, align 8
  %34 = load i32, ptr %11, align 4
  %35 = call i32 @tvb_reported_length_remaining(ptr noundef %33, i32 noundef %34)
  %36 = icmp sgt i32 %35, 0
  br i1 %36, label %37, label %45

37:                                               ; preds = %32
  %38 = load ptr, ptr %10, align 8
  %39 = load i32, ptr %11, align 4
  %40 = load ptr, ptr %13, align 8
  %41 = load ptr, ptr %14, align 8
  %42 = call ptr @dissect_res_id(ptr noundef %38, i32 noundef %39, ptr noundef %40, ptr noundef %41, i32 noundef 0, i1 noundef zeroext false)
  %43 = load i32, ptr %11, align 4
  %44 = add i32 %43, 4
  store i32 %44, ptr %11, align 4
  br label %32, !llvm.loop !12

45:                                               ; preds = %32
  br label %46

46:                                               ; preds = %45, %7
  store i32 0, ptr %16, align 4
  br label %47

47:                                               ; preds = %46, %23
  call void @llvm.lifetime.end.p0(i64 8, ptr %15) #11
  %48 = load i32, ptr %16, align 4
  switch i32 %48, label %50 [
    i32 0, label %49
    i32 1, label %49
  ]

49:                                               ; preds = %47, %47
  ret void

50:                                               ; preds = %47
  unreachable
}