; Function Attrs: null_pointer_is_valid sspstrong uwtable
define internal void @dissect_dvbci_payload_rm(i32 noundef %0, i32 noundef %1, ptr noundef %2, i32 noundef %3, ptr readnone captures(none) %4, ptr noundef %5, ptr noundef %6) #1 {
  %8 = icmp eq i32 %0, 10453009
  br i1 %8, label %9, label %.loopexit

9:                                                ; preds = %7
  %10 = and i32 %1, 3
  %.not = icmp eq i32 %10, 0
  br i1 %.not, label %.preheader, label %16

.preheader:                                       ; preds = %9
  %11 = tail call i32 @tvb_reported_length_remaining(ptr noundef %2, i32 noundef %3)
  %12 = icmp sgt i32 %11, 0
  br i1 %12, label %.lr.ph, label %.loopexit

.lr.ph:                                           ; preds = %.preheader
  %.not.i = icmp eq ptr %2, null
  br i1 %.not.i, label %dissect_res_id.exit.us, label %dissect_res_id.exit

dissect_res_id.exit.us:                           ; preds = %.lr.ph, %dissect_res_id.exit.us
  %.014.us = phi i32 [ %13, %dissect_res_id.exit.us ], [ %3, %.lr.ph ]
  %13 = add i32 %.014.us, 4
  %14 = tail call i32 @tvb_reported_length_remaining(ptr noundef null, i32 noundef %13)
  %15 = icmp sgt i32 %14, 0
  br i1 %15, label %dissect_res_id.exit.us, label %.loopexit, !llvm.loop !10

16:                                               ; preds = %9
  %17 = tail call ptr @val_to_str(i32 noundef 10453009, ptr noundef nonnull @dvbci_apdu_tag, ptr noundef nonnull @.str.985)
  %18 = tail call ptr (ptr, ptr, ptr, ptr, i32, i32, ptr, ...) @proto_tree_add_expert_format(ptr noundef %6, ptr noundef %5, ptr noundef nonnull @ei_dvbci_bad_length, ptr noundef %2, i32 noundef 0, i32 noundef 3, ptr noundef nonnull @.str.986, ptr noundef %17)
  br label %.loopexit

dissect_res_id.exit:                              ; preds = %.lr.ph, %dissect_res_id.exit
  %.014 = phi i32 [ %24, %dissect_res_id.exit ], [ %3, %.lr.ph ]
  %19 = tail call i32 @tvb_get_ntohl(ptr noundef nonnull %2, i32 noundef %.014)
  %20 = load i32, ptr @hf_dvbci_res_id, align 4
  %21 = load i32, ptr @ett_dvbci_res, align 4
  %22 = zext i32 %19 to i64
  %23 = tail call ptr @proto_tree_add_bitmask_value_with_flags(ptr noundef %6, ptr noundef nonnull %2, i32 noundef %.014, i32 noundef %20, i32 noundef %21, ptr noundef nonnull @dvb_ci_res_id_fields, i64 noundef %22, i32 noundef 1)
  %24 = add i32 %.014, 4
  %25 = tail call i32 @tvb_reported_length_remaining(ptr noundef nonnull %2, i32 noundef %24)
  %26 = icmp sgt i32 %25, 0
  br i1 %26, label %dissect_res_id.exit, label %.loopexit, !llvm.loop !10

.loopexit:                                        ; preds = %dissect_res_id.exit, %dissect_res_id.exit.us, %.preheader, %7, %16
  ret void
}